target datalayout = "e-m:e-p270:32:32-p271:32:32-p272:64:64-i64:64-i128:128-f80:128-n8:16:32:64-S128"
target triple = "x86_64-pc-linux-gnu"

%"struct.Luau::CodeGen::X64::RegisterX64" = type { i8 }
%"struct.Luau::CodeGen::X64::IrRegAllocX64" = type { ptr, ptr, ptr, i32, %"struct.std::array", %"struct.std::array.0", %"struct.std::array", %"struct.std::array.0", i8, %"class.std::bitset", i32, i32, %"class.std::vector" }
%"struct.std::array" = type { [16 x i8] }
%"struct.std::array.0" = type { [16 x i32] }
%"class.std::bitset" = type { %"struct.std::_Base_bitset" }
%"struct.std::_Base_bitset" = type { [4 x i64] }
%"class.std::vector" = type { %"struct.std::_Vector_base" }
%"struct.std::_Vector_base" = type { %"struct.std::_Vector_base<Luau::CodeGen::X64::IrSpillX64, std::allocator<Luau::CodeGen::X64::IrSpillX64>>::_Vector_impl" }
%"struct.std::_Vector_base<Luau::CodeGen::X64::IrSpillX64, std::allocator<Luau::CodeGen::X64::IrSpillX64>>::_Vector_impl" = type { %"struct.std::_Vector_base<Luau::CodeGen::X64::IrSpillX64, std::allocator<Luau::CodeGen::X64::IrSpillX64>>::_Vector_impl_data" }
%"struct.std::_Vector_base<Luau::CodeGen::X64::IrSpillX64, std::allocator<Luau::CodeGen::X64::IrSpillX64>>::_Vector_impl_data" = type { ptr, ptr, ptr }
%"class.std::vector.1" = type { %"struct.std::_Vector_base.2" }
%"struct.std::_Vector_base.2" = type { %"struct.std::_Vector_base<unsigned char, std::allocator<unsigned char>>::_Vector_impl" }
%"struct.std::_Vector_base<unsigned char, std::allocator<unsigned char>>::_Vector_impl" = type { %"struct.std::_Vector_base<unsigned char, std::allocator<unsigned char>>::_Vector_impl_data" }
%"struct.std::_Vector_base<unsigned char, std::allocator<unsigned char>>::_Vector_impl_data" = type { ptr, ptr, ptr }
%"class.std::vector.14" = type { %"struct.std::_Vector_base.15" }
%"struct.std::_Vector_base.15" = type { %"struct.std::_Vector_base<unsigned int, std::allocator<unsigned int>>::_Vector_impl" }
%"struct.std::_Vector_base<unsigned int, std::allocator<unsigned int>>::_Vector_impl" = type { %"struct.std::_Vector_base<unsigned int, std::allocator<unsigned int>>::_Vector_impl_data" }
%"struct.std::_Vector_base<unsigned int, std::allocator<unsigned int>>::_Vector_impl_data" = type { ptr, ptr, ptr }
%"struct.Luau::CodeGen::IrFunction" = type { %"class.std::vector.26", %"class.std::vector.31", %"class.std::vector.36", %"class.std::vector.41", %"class.std::vector.46", %"class.std::vector.51", i32, i32, %"class.std::vector.56", %"class.std::vector.14", %"struct.Luau::CodeGen::BytecodeTypeInfo", ptr, i8, %"struct.Luau::CodeGen::CfgInfo" }
%"class.std::vector.26" = type { %"struct.std::_Vector_base.27" }
%"struct.std::_Vector_base.27" = type { %"struct.std::_Vector_base<Luau::CodeGen::IrBlock, std::allocator<Luau::CodeGen::IrBlock>>::_Vector_impl" }
%"struct.std::_Vector_base<Luau::CodeGen::IrBlock, std::allocator<Luau::CodeGen::IrBlock>>::_Vector_impl" = type { %"struct.std::_Vector_base<Luau::CodeGen::IrBlock, std::allocator<Luau::CodeGen::IrBlock>>::_Vector_impl_data" }
%"struct.std::_Vector_base<Luau::CodeGen::IrBlock, std::allocator<Luau::CodeGen::IrBlock>>::_Vector_impl_data" = type { ptr, ptr, ptr }
%"class.std::vector.31" = type { %"struct.std::_Vector_base.32" }
%"struct.std::_Vector_base.32" = type { %"struct.std::_Vector_base<Luau::CodeGen::IrInst, std::allocator<Luau::CodeGen::IrInst>>::_Vector_impl" }
%"struct.std::_Vector_base<Luau::CodeGen::IrInst, std::allocator<Luau::CodeGen::IrInst>>::_Vector_impl" = type { %"struct.std::_Vector_base<Luau::CodeGen::IrInst, std::allocator<Luau::CodeGen::IrInst>>::_Vector_impl_data" }
%"struct.std::_Vector_base<Luau::CodeGen::IrInst, std::allocator<Luau::CodeGen::IrInst>>::_Vector_impl_data" = type { ptr, ptr, ptr }
%"class.std::vector.36" = type { %"struct.std::_Vector_base.37" }
%"struct.std::_Vector_base.37" = type { %"struct.std::_Vector_base<Luau::CodeGen::IrConst, std::allocator<Luau::CodeGen::IrConst>>::_Vector_impl" }
%"struct.std::_Vector_base<Luau::CodeGen::IrConst, std::allocator<Luau::CodeGen::IrConst>>::_Vector_impl" = type { %"struct.std::_Vector_base<Luau::CodeGen::IrConst, std::allocator<Luau::CodeGen::IrConst>>::_Vector_impl_data" }
%"struct.std::_Vector_base<Luau::CodeGen::IrConst, std::allocator<Luau::CodeGen::IrConst>>::_Vector_impl_data" = type { ptr, ptr, ptr }
%"class.std::vector.41" = type { %"struct.std::_Vector_base.42" }
%"struct.std::_Vector_base.42" = type { %"struct.std::_Vector_base<Luau::CodeGen::BytecodeBlock, std::allocator<Luau::CodeGen::BytecodeBlock>>::_Vector_impl" }
%"struct.std::_Vector_base<Luau::CodeGen::BytecodeBlock, std::allocator<Luau::CodeGen::BytecodeBlock>>::_Vector_impl" = type { %"struct.std::_Vector_base<Luau::CodeGen::BytecodeBlock, std::allocator<Luau::CodeGen::BytecodeBlock>>::_Vector_impl_data" }
%"struct.std::_Vector_base<Luau::CodeGen::BytecodeBlock, std::allocator<Luau::CodeGen::BytecodeBlock>>::_Vector_impl_data" = type { ptr, ptr, ptr }
%"class.std::vector.46" = type { %"struct.std::_Vector_base.47" }
%"struct.std::_Vector_base.47" = type { %"struct.std::_Vector_base<Luau::CodeGen::BytecodeTypes, std::allocator<Luau::CodeGen::BytecodeTypes>>::_Vector_impl" }
%"struct.std::_Vector_base<Luau::CodeGen::BytecodeTypes, std::allocator<Luau::CodeGen::BytecodeTypes>>::_Vector_impl" = type { %"struct.std::_Vector_base<Luau::CodeGen::BytecodeTypes, std::allocator<Luau::CodeGen::BytecodeTypes>>::_Vector_impl_data" }
%"struct.std::_Vector_base<Luau::CodeGen::BytecodeTypes, std::allocator<Luau::CodeGen::BytecodeTypes>>::_Vector_impl_data" = type { ptr, ptr, ptr }
%"class.std::vector.51" = type { %"struct.std::_Vector_base.52" }
%"struct.std::_Vector_base.52" = type { %"struct.std::_Vector_base<Luau::CodeGen::BytecodeMapping, std::allocator<Luau::CodeGen::BytecodeMapping>>::_Vector_impl" }
%"struct.std::_Vector_base<Luau::CodeGen::BytecodeMapping, std::allocator<Luau::CodeGen::BytecodeMapping>>::_Vector_impl" = type { %"struct.std::_Vector_base<Luau::CodeGen::BytecodeMapping, std::allocator<Luau::CodeGen::BytecodeMapping>>::_Vector_impl_data" }
%"struct.std::_Vector_base<Luau::CodeGen::BytecodeMapping, std::allocator<Luau::CodeGen::BytecodeMapping>>::_Vector_impl_data" = type { ptr, ptr, ptr }
%"class.std::vector.56" = type { %"struct.std::_Vector_base.57" }
%"struct.std::_Vector_base.57" = type { %"struct.std::_Vector_base<Luau::CodeGen::IrOp, std::allocator<Luau::CodeGen::IrOp>>::_Vector_impl" }
%"struct.std::_Vector_base<Luau::CodeGen::IrOp, std::allocator<Luau::CodeGen::IrOp>>::_Vector_impl" = type { %"struct.std::_Vector_base<Luau::CodeGen::IrOp, std::allocator<Luau::CodeGen::IrOp>>::_Vector_impl_data" }
%"struct.std::_Vector_base<Luau::CodeGen::IrOp, std::allocator<Luau::CodeGen::IrOp>>::_Vector_impl_data" = type { ptr, ptr, ptr }
%"struct.Luau::CodeGen::BytecodeTypeInfo" = type { %"class.std::vector.1", %"class.std::vector.61", %"class.std::vector.1", %"class.std::vector.14" }
%"class.std::vector.61" = type { %"struct.std::_Vector_base.62" }
%"struct.std::_Vector_base.62" = type { %"struct.std::_Vector_base<Luau::CodeGen::BytecodeRegTypeInfo, std::allocator<Luau::CodeGen::BytecodeRegTypeInfo>>::_Vector_impl" }
%"struct.std::_Vector_base<Luau::CodeGen::BytecodeRegTypeInfo, std::allocator<Luau::CodeGen::BytecodeRegTypeInfo>>::_Vector_impl" = type { %"struct.std::_Vector_base<Luau::CodeGen::BytecodeRegTypeInfo, std::allocator<Luau::CodeGen::BytecodeRegTypeInfo>>::_Vector_impl_data" }
%"struct.std::_Vector_base<Luau::CodeGen::BytecodeRegTypeInfo, std::allocator<Luau::CodeGen::BytecodeRegTypeInfo>>::_Vector_impl_data" = type { ptr, ptr, ptr }
%"struct.Luau::CodeGen::CfgInfo" = type { %"class.std::vector.14", %"class.std::vector.14", %"class.std::vector.14", %"class.std::vector.14", %"class.std::vector.14", %"class.std::vector.14", %"class.std::vector.14", %"class.std::vector.66", %"class.std::vector.71", %"class.std::vector.71", %"class.std::vector.71", %"struct.Luau::CodeGen::RegisterSet" }
%"class.std::vector.66" = type { %"struct.std::_Vector_base.67" }
%"struct.std::_Vector_base.67" = type { %"struct.std::_Vector_base<Luau::CodeGen::BlockOrdering, std::allocator<Luau::CodeGen::BlockOrdering>>::_Vector_impl" }
%"struct.std::_Vector_base<Luau::CodeGen::BlockOrdering, std::allocator<Luau::CodeGen::BlockOrdering>>::_Vector_impl" = type { %"struct.std::_Vector_base<Luau::CodeGen::BlockOrdering, std::allocator<Luau::CodeGen::BlockOrdering>>::_Vector_impl_data" }
%"struct.std::_Vector_base<Luau::CodeGen::BlockOrdering, std::allocator<Luau::CodeGen::BlockOrdering>>::_Vector_impl_data" = type { ptr, ptr, ptr }
%"class.std::vector.71" = type { %"struct.std::_Vector_base.72" }
%"struct.std::_Vector_base.72" = type { %"struct.std::_Vector_base<Luau::CodeGen::RegisterSet, std::allocator<Luau::CodeGen::RegisterSet>>::_Vector_impl" }
%"struct.std::_Vector_base<Luau::CodeGen::RegisterSet, std::allocator<Luau::CodeGen::RegisterSet>>::_Vector_impl" = type { %"struct.std::_Vector_base<Luau::CodeGen::RegisterSet, std::allocator<Luau::CodeGen::RegisterSet>>::_Vector_impl_data" }
%"struct.std::_Vector_base<Luau::CodeGen::RegisterSet, std::allocator<Luau::CodeGen::RegisterSet>>::_Vector_impl_data" = type { ptr, ptr, ptr }
%"struct.Luau::CodeGen::RegisterSet" = type <{ %"class.std::bitset", i8, i8, [6 x i8] }>
%"struct.Luau::CodeGen::IrInst" = type <{ i8, [3 x i8], %"struct.Luau::CodeGen::IrOp", %"struct.Luau::CodeGen::IrOp", %"struct.Luau::CodeGen::IrOp", %"struct.Luau::CodeGen::IrOp", %"struct.Luau::CodeGen::IrOp", %"struct.Luau::CodeGen::IrOp", %"struct.Luau::CodeGen::IrOp", i32, i16, %"struct.Luau::CodeGen::X64::RegisterX64", %"struct.Luau::CodeGen::A64::RegisterA64", i8, i8, i8, i8 }>
%"struct.Luau::CodeGen::IrOp" = type { i32 }
%"struct.Luau::CodeGen::A64::RegisterA64" = type { i8 }
%"class.std::initializer_list" = type { ptr, i64 }

; Function Attrs: mustprogress nounwind uwtable
define linkonce_odr dso_local noundef nonnull align 4 dereferenceable(4) ptr @_ZNSt14__array_traitsIjLm16EE6_S_refERA16_Kjm(ptr noundef nonnull align 4 dereferenceable(64) %0, i64 noundef %1) #1 comdat align 2 {
  %3 = alloca ptr, align 8
  %4 = alloca i64, align 8
  store ptr %0, ptr %3, align 8
  store i64 %1, ptr %4, align 8
  %5 = load ptr, ptr %3, align 8
  %6 = load i64, ptr %4, align 8
  %7 = getelementptr inbounds [16 x i32], ptr %5, i64 0, i64 %6
  ret ptr %7
}

; Function Attrs: mustprogress nounwind uwtable
define linkonce_odr dso_local noundef i64 @_ZNKSt16initializer_listIN4Luau7CodeGen4IrOpEE4sizeEv(ptr noundef nonnull align 8 dereferenceable(16) %0) #1 comdat align 2 {
  %2 = alloca ptr, align 8
  store ptr %0, ptr %2, align 8
  %3 = load ptr, ptr %2, align 8
  %4 = getelementptr inbounds %"class.std::initializer_list", ptr %3, i32 0, i32 1
  %5 = load i64, ptr %4, align 8
  ret i64 %5
}

; Function Attrs: mustprogress nounwind uwtable
define linkonce_odr dso_local noundef nonnull align 4 dereferenceable(4) ptr @_ZNSt5arrayIjLm16EEixEm(ptr noundef nonnull align 4 dereferenceable(64) %0, i64 noundef %1) #1 comdat align 2 {
  %3 = alloca ptr, align 8
  %4 = alloca i64, align 8
  store ptr %0, ptr %3, align 8
  store i64 %1, ptr %4, align 8
  %5 = load ptr, ptr %3, align 8
  %6 = getelementptr inbounds %"struct.std::array.0", ptr %5, i32 0, i32 0
  %7 = load i64, ptr %4, align 8
  %8 = call noundef nonnull align 4 dereferenceable(4) ptr @_ZNSt14__array_traitsIjLm16EE6_S_refERA16_Kjm(ptr noundef nonnull align 4 dereferenceable(64) %6, i64 noundef %7) #10
  ret ptr %8
}

; Function Attrs: mustprogress nounwind uwtable
define linkonce_odr dso_local noundef nonnull align 4 dereferenceable(43) ptr @_ZNSt6vectorIN4Luau7CodeGen6IrInstESaIS2_EEixEm(ptr noundef nonnull align 8 dereferenceable(24) %0, i64 noundef %1) #1 comdat align 2 {
  %3 = alloca ptr, align 8
  %4 = alloca i64, align 8
  store ptr %0, ptr %3, align 8
  store i64 %1, ptr %4, align 8
  %5 = load ptr, ptr %3, align 8
  %6 = getelementptr inbounds %"struct.std::_Vector_base.32", ptr %5, i32 0, i32 0
  %7 = getelementptr inbounds %"struct.std::_Vector_base<Luau::CodeGen::IrInst, std::allocator<Luau::CodeGen::IrInst>>::_Vector_impl_data", ptr %6, i32 0, i32 0
  %8 = load ptr, ptr %7, align 8
  %9 = load i64, ptr %4, align 8
  %10 = getelementptr inbounds %"struct.Luau::CodeGen::IrInst", ptr %8, i64 %9
  ret ptr %10
}

; Function Attrs: mustprogress nounwind uwtable
define linkonce_odr dso_local noundef ptr @_ZNKSt16initializer_listIN4Luau7CodeGen4IrOpEE3endEv(ptr noundef nonnull align 8 dereferenceable(16) %0) #1 comdat align 2 {
  %2 = alloca ptr, align 8
  store ptr %0, ptr %2, align 8
  %3 = load ptr, ptr %2, align 8
  %4 = call noundef ptr @_ZNKSt16initializer_listIN4Luau7CodeGen4IrOpEE5beginEv(ptr noundef nonnull align 8 dereferenceable(16) %3) #10
  %5 = call noundef i64 @_ZNKSt16initializer_listIN4Luau7CodeGen4IrOpEE4sizeEv(ptr noundef nonnull align 8 dereferenceable(16) %3) #10
  %6 = getelementptr inbounds %"struct.Luau::CodeGen::IrOp", ptr %4, i64 %5
  ret ptr %6
}

; Function Attrs: mustprogress nounwind uwtable
define linkonce_odr dso_local noundef ptr @_ZNKSt16initializer_listIN4Luau7CodeGen4IrOpEE5beginEv(ptr noundef nonnull align 8 dereferenceable(16) %0) #1 comdat align 2 {
  %2 = alloca ptr, align 8
  store ptr %0, ptr %2, align 8
  %3 = load ptr, ptr %2, align 8
  %4 = getelementptr inbounds %"class.std::initializer_list", ptr %3, i32 0, i32 0
  %5 = load ptr, ptr %4, align 8
  ret ptr %5
}

; Function Attrs: mustprogress uwtable
define dso_local i8 @_ZN4Luau7CodeGen3X6413IrRegAllocX6415allocRegOrReuseENS1_7SizeX64EjSt16initializer_listINS0_4IrOpEE(ptr noundef nonnull align 8 dereferenceable(256) %0, i8 noundef zeroext %1, i32 noundef %2, ptr %3, i64 %4) #0 align 2 {
  %6 = alloca %"struct.Luau::CodeGen::X64::RegisterX64", align 1
  %7 = alloca %"class.std::initializer_list", align 8
  %8 = alloca ptr, align 8
  %9 = alloca i8, align 1
  %10 = alloca i32, align 4
  %11 = alloca ptr, align 8
  %12 = alloca ptr, align 8
  %13 = alloca ptr, align 8
  %14 = alloca %"struct.Luau::CodeGen::IrOp", align 4
  %15 = alloca ptr, align 8
  %16 = getelementptr inbounds { ptr, i64 }, ptr %7, i32 0, i32 0
  store ptr %3, ptr %16, align 8
  %17 = getelementptr inbounds { ptr, i64 }, ptr %7, i32 0, i32 1
  store i64 %4, ptr %17, align 8
  store ptr %0, ptr %8, align 8
  store i8 %1, ptr %9, align 1
  store i32 %2, ptr %10, align 4
  %18 = load ptr, ptr %8, align 8
  store ptr %7, ptr %11, align 8
  %19 = load ptr, ptr %11, align 8
  %20 = call noundef ptr @_ZNKSt16initializer_listIN4Luau7CodeGen4IrOpEE5beginEv(ptr noundef nonnull align 8 dereferenceable(16) %19) #10
  store ptr %20, ptr %12, align 8
  %21 = load ptr, ptr %11, align 8
  %22 = call noundef ptr @_ZNKSt16initializer_listIN4Luau7CodeGen4IrOpEE3endEv(ptr noundef nonnull align 8 dereferenceable(16) %21) #10
  store ptr %22, ptr %13, align 8
  br label %23

23:                                               ; preds = %112, %5
  %24 = load ptr, ptr %12, align 8
  %25 = load ptr, ptr %13, align 8
  %26 = icmp ne ptr %24, %25
  br i1 %26, label %27, label %115

27:                                               ; preds = %23
  %28 = load ptr, ptr %12, align 8
  call void @llvm.memcpy.p0.p0.i64(ptr align 4 %14, ptr align 4 %28, i64 4, i1 false)
  %29 = load i32, ptr %14, align 4
  %30 = and i32 %29, 15
  %31 = icmp ne i32 %30, 4
  br i1 %31, label %32, label %33

32:                                               ; preds = %27
  br label %112

33:                                               ; preds = %27
  %34 = getelementptr inbounds %"struct.Luau::CodeGen::X64::IrRegAllocX64", ptr %18, i32 0, i32 1
  %35 = load ptr, ptr %34, align 8
  %36 = getelementptr inbounds %"struct.Luau::CodeGen::IrFunction", ptr %35, i32 0, i32 1
  %37 = load i32, ptr %14, align 4
  %38 = lshr i32 %37, 4
  %39 = zext i32 %38 to i64
  %40 = call noundef nonnull align 4 dereferenceable(43) ptr @_ZNSt6vectorIN4Luau7CodeGen6IrInstESaIS2_EEixEm(ptr noundef nonnull align 8 dereferenceable(24) %36, i64 noundef %39) #10
  store ptr %40, ptr %15, align 8
  %41 = load ptr, ptr %15, align 8
  %42 = getelementptr inbounds %"struct.Luau::CodeGen::IrInst", ptr %41, i32 0, i32 9
  %43 = load i32, ptr %42, align 4
  %44 = load i32, ptr %10, align 4
  %45 = icmp eq i32 %43, %44
  br i1 %45, label %46, label %111

46:                                               ; preds = %33
  %47 = load ptr, ptr %15, align 8
  %48 = getelementptr inbounds %"struct.Luau::CodeGen::IrInst", ptr %47, i32 0, i32 13
  %49 = load i8, ptr %48, align 4
  %50 = trunc i8 %49 to i1
  br i1 %50, label %111, label %51

51:                                               ; preds = %46
  %52 = load ptr, ptr %15, align 8
  %53 = getelementptr inbounds %"struct.Luau::CodeGen::IrInst", ptr %52, i32 0, i32 14
  %54 = load i8, ptr %53, align 1
  %55 = trunc i8 %54 to i1
  br i1 %55, label %111, label %56

56:                                               ; preds = %51
  %57 = load ptr, ptr %15, align 8
  %58 = getelementptr inbounds %"struct.Luau::CodeGen::IrInst", ptr %57, i32 0, i32 15
  %59 = load i8, ptr %58, align 2
  %60 = trunc i8 %59 to i1
  br i1 %60, label %111, label %61

61:                                               ; preds = %56
  %62 = load i8, ptr %9, align 1
  %63 = icmp eq i8 %62, 5
  %64 = zext i1 %63 to i32
  %65 = load ptr, ptr %15, align 8
  %66 = getelementptr inbounds %"struct.Luau::CodeGen::IrInst", ptr %65, i32 0, i32 11
  %67 = load i8, ptr %66, align 2
  %68 = and i8 %67, 7
  %69 = icmp eq i8 %68, 5
  %70 = zext i1 %69 to i32
  %71 = icmp ne i32 %64, %70
  br i1 %71, label %72, label %73

72:                                               ; preds = %61
  br label %112

73:                                               ; preds = %61
  %74 = load ptr, ptr %15, align 8
  %75 = getelementptr inbounds %"struct.Luau::CodeGen::IrInst", ptr %74, i32 0, i32 13
  store i8 1, ptr %75, align 4
  %76 = load i8, ptr %9, align 1
  %77 = icmp eq i8 %76, 5
  br i1 %77, label %78, label %87

78:                                               ; preds = %73
  %79 = load i32, ptr %10, align 4
  %80 = getelementptr inbounds %"struct.Luau::CodeGen::X64::IrRegAllocX64", ptr %18, i32 0, i32 7
  %81 = load ptr, ptr %15, align 8
  %82 = getelementptr inbounds %"struct.Luau::CodeGen::IrInst", ptr %81, i32 0, i32 11
  %83 = load i8, ptr %82, align 2
  %84 = lshr i8 %83, 3
  %85 = zext i8 %84 to i64
  %86 = call noundef nonnull align 4 dereferenceable(4) ptr @_ZNSt5arrayIjLm16EEixEm(ptr noundef nonnull align 4 dereferenceable(64) %80, i64 noundef %85) #10
  store i32 %79, ptr %86, align 4
  br label %96

87:                                               ; preds = %73
  %88 = load i32, ptr %10, align 4
  %89 = getelementptr inbounds %"struct.Luau::CodeGen::X64::IrRegAllocX64", ptr %18, i32 0, i32 5
  %90 = load ptr, ptr %15, align 8
  %91 = getelementptr inbounds %"struct.Luau::CodeGen::IrInst", ptr %90, i32 0, i32 11
  %92 = load i8, ptr %91, align 2
  %93 = lshr i8 %92, 3
  %94 = zext i8 %93 to i64
  %95 = call noundef nonnull align 4 dereferenceable(4) ptr @_ZNSt5arrayIjLm16EEixEm(ptr noundef nonnull align 4 dereferenceable(64) %89, i64 noundef %94) #10
  store i32 %88, ptr %95, align 4
  br label %96

96:                                               ; preds = %87, %78
  %97 = load i8, ptr %9, align 1
  %98 = load i8, ptr %6, align 1
  %99 = and i8 %97, 7
  %100 = and i8 %98, -8
  %101 = or i8 %100, %99
  store i8 %101, ptr %6, align 1
  %102 = load ptr, ptr %15, align 8
  %103 = getelementptr inbounds %"struct.Luau::CodeGen::IrInst", ptr %102, i32 0, i32 11
  %104 = load i8, ptr %103, align 2
  %105 = lshr i8 %104, 3
  %106 = load i8, ptr %6, align 1
  %107 = and i8 %105, 31
  %108 = shl i8 %107, 3
  %109 = and i8 %106, 7
  %110 = or i8 %109, %108
  store i8 %110, ptr %6, align 1
  br label %120

111:                                              ; preds = %56, %51, %46, %33
  br label %112

112:                                              ; preds = %111, %72, %32
  %113 = load ptr, ptr %12, align 8
  %114 = getelementptr inbounds %"struct.Luau::CodeGen::IrOp", ptr %113, i32 1
  store ptr %114, ptr %12, align 8
  br label %23

115:                                              ; preds = %23
  %116 = load i8, ptr %9, align 1
  %117 = load i32, ptr %10, align 4
  %118 = call i8 @_ZN4Luau7CodeGen3X6413IrRegAllocX648allocRegENS1_7SizeX64Ej(ptr noundef nonnull align 8 dereferenceable(256) %18, i8 noundef zeroext %116, i32 noundef %117)
  %119 = getelementptr inbounds %"struct.Luau::CodeGen::X64::RegisterX64", ptr %6, i32 0, i32 0
  store i8 %118, ptr %119, align 1
  br label %120

120:                                              ; preds = %115, %96
  %121 = getelementptr inbounds %"struct.Luau::CodeGen::X64::RegisterX64", ptr %6, i32 0, i32 0
  %122 = load i8, ptr %121, align 1
  ret i8 %122
}