; Function Attrs: mustprogress uwtable
define dso_local i8 @_ZN4Luau7CodeGen3X6413IrRegAllocX6415allocRegOrReuseENS1_7SizeX64EjSt16initializer_listINS0_4IrOpEE(ptr nocapture noundef nonnull align 8 dereferenceable(256) %0, i8 noundef zeroext %1, i32 noundef %2, ptr readonly %3, i64 %4) local_unnamed_addr #1 align 2 {
  %6 = getelementptr inbounds %"struct.Luau::CodeGen::IrOp", ptr %3, i64 %4
  %.not36 = icmp eq i64 %4, 0
  br i1 %.not36, label %._crit_edge, label %.lr.ph

.lr.ph:                                           ; preds = %5
  %7 = getelementptr inbounds i8, ptr %0, i64 8
  %8 = load ptr, ptr %7, align 8
  %9 = getelementptr inbounds i8, ptr %8, i64 24
  %10 = icmp eq i8 %1, 5
  br label %11

11:                                               ; preds = %.lr.ph, %49
  %.037 = phi ptr [ %3, %.lr.ph ], [ %50, %49 ]
  %.sroa.0.0.copyload = load i32, ptr %.037, align 4
  %12 = and i32 %.sroa.0.0.copyload, 15
  %.not28 = icmp eq i32 %12, 4
  br i1 %.not28, label %13, label %49

13:                                               ; preds = %11
  %14 = lshr i32 %.sroa.0.0.copyload, 4
  %15 = zext nneg i32 %14 to i64
  %16 = load ptr, ptr %9, align 8
  %17 = getelementptr inbounds %"struct.Luau::CodeGen::IrInst", ptr %16, i64 %15
  %18 = getelementptr inbounds i8, ptr %17, i64 32
  %19 = load i32, ptr %18, align 4
  %20 = icmp eq i32 %19, %2
  br i1 %20, label %21, label %49

21:                                               ; preds = %13
  %22 = getelementptr inbounds i8, ptr %17, i64 40
  %23 = load i8, ptr %22, align 4
  %24 = trunc i8 %23 to i1
  br i1 %24, label %49, label %25

25:                                               ; preds = %21
  %26 = getelementptr inbounds i8, ptr %17, i64 41
  %27 = load i8, ptr %26, align 1
  %28 = trunc i8 %27 to i1
  br i1 %28, label %49, label %29

29:                                               ; preds = %25
  %30 = getelementptr inbounds i8, ptr %17, i64 42
  %31 = load i8, ptr %30, align 2
  %32 = trunc i8 %31 to i1
  br i1 %32, label %49, label %33

33:                                               ; preds = %29
  %34 = getelementptr inbounds i8, ptr %17, i64 38
  %35 = load i8, ptr %34, align 2
  %36 = and i8 %35, 7
  %37 = icmp ne i8 %36, 5
  %.not29 = xor i1 %10, %37
  br i1 %.not29, label %38, label %49

38:                                               ; preds = %33
  %39 = getelementptr inbounds i8, ptr %17, i64 40
  %40 = getelementptr inbounds i8, ptr %17, i64 38
  store i8 1, ptr %39, align 4
  %41 = lshr i8 %35, 3
  %42 = zext nneg i8 %41 to i64
  %. = select i1 %10, i64 124, i64 44
  %43 = getelementptr inbounds i8, ptr %0, i64 %.
  %44 = getelementptr inbounds [16 x i32], ptr %43, i64 0, i64 %42
  store i32 %2, ptr %44, align 4
  %45 = and i8 %1, 7
  %46 = load i8, ptr %40, align 2
  %47 = and i8 %46, -8
  %48 = or disjoint i8 %47, %45
  br label %52

49:                                               ; preds = %13, %21, %25, %29, %33, %11
  %50 = getelementptr inbounds i8, ptr %.037, i64 4
  %.not = icmp eq ptr %50, %6
  br i1 %.not, label %._crit_edge, label %11

._crit_edge:                                      ; preds = %49, %5
  %51 = tail call i8 @_ZN4Luau7CodeGen3X6413IrRegAllocX648allocRegENS1_7SizeX64Ej(ptr noundef nonnull align 8 dereferenceable(256) %0, i8 noundef zeroext %1, i32 noundef %2)
  br label %52

52:                                               ; preds = %._crit_edge, %38
  %.sroa.024.0 = phi i8 [ %48, %38 ], [ %51, %._crit_edge ]
  ret i8 %.sroa.024.0
}